target datalayout = "e-m:e-p270:32:32-p271:32:32-p272:64:64-i64:64-i128:128-f80:128-n8:16:32:64-S128"
target triple = "x86_64-pc-linux-gnu"

%struct.ssl_st = type { i32, ptr, ptr, ptr, %struct.CRYPTO_REF_COUNT, ptr, %struct.crypto_ex_data_st }
%struct.CRYPTO_REF_COUNT = type { i32 }
%struct.crypto_ex_data_st = type { ptr, ptr }
%struct.ssl_connection_st = type { %struct.ssl_st, ptr, i32, ptr, ptr, ptr, i32, ptr, i32, i32, i32, i32, %struct.OSSL_TIME, %struct.OSSL_TIME, %struct.ossl_statem_st, i32, ptr, ptr, i64, i64, i64, %struct.ossl_quic_tls_callbacks_st, ptr, ptr, %struct.anon, ptr, ptr, ptr, i32, ptr, %struct.ssl_dane_st, ptr, ptr, ptr, ptr, i32, [64 x i8], [64 x i8], [64 x i8], [64 x i8], [64 x i8], [64 x i8], [64 x i8], [64 x i8], [64 x i8], [64 x i8], [64 x i8], [64 x i8], ptr, [64 x i8], i64, i32, i64, [32 x i8], ptr, ptr, ptr, i64, ptr, [32 x i8], i64, i32, ptr, ptr, i32, i32, ptr, ptr, ptr, ptr, ptr, i64, ptr, ptr, i64, i32, i32, i32, i64, i32, i32, i64, i64, i64, %struct.anon.1, ptr, i32, ptr, ptr, ptr, i32, ptr, ptr, ptr, i32, i32, i32, i32, ptr, i64, i32, ptr, %struct.srp_ctx_st, ptr, %struct.record_layer_st, ptr, ptr, ptr, ptr, i64, i32, i32, i32, i64, i64, i64, ptr, ptr, ptr, ptr, ptr, i64, ptr, i64, ptr, i64 }
%struct.OSSL_TIME = type { i64 }
%struct.ossl_statem_st = type { i32, i32, i32, i32, i32, i32, i32, i32, i32, i32, i32, i32, i32, ptr, ptr, ptr, i8 }
%struct.ossl_quic_tls_callbacks_st = type { ptr, ptr, ptr, ptr, ptr, ptr }
%struct.anon = type { i64, [32 x i8], [32 x i8], ptr, ptr, i32, i32, i32, i32, [2 x i8], i32, i32, i32, i32, %struct.anon.0, [64 x i8], i64, [64 x i8], i64, i32, i32, ptr, i64, ptr, i64, i32, i8, i8, i16, ptr, i16 }
%struct.anon.0 = type { [128 x i8], i64, [128 x i8], i64, i64, i32, ptr, ptr, [4 x ptr], [4 x i16], i64, i32, ptr, i64, ptr, i64, ptr, ptr, ptr, i32, i64, ptr, i32, ptr, i64, ptr, i64, ptr, i64, ptr, ptr, ptr, ptr, i64, i64, ptr, ptr, i32, i32, i32, i32 }
%struct.ssl_dane_st = type { ptr, ptr, ptr, ptr, ptr, i32, i32, i32, i64 }
%struct.anon.1 = type { [29 x i8], ptr, ptr, ptr, i32, ptr, i16, i32, %struct.anon.2, i32, i32, i64, ptr, i64, ptr, i64, ptr, i64, ptr, i64, ptr, i64, ptr, ptr, ptr, ptr, ptr, ptr, ptr, i64, ptr, i64, i32, i32, i32, i32, ptr, i64, i32, i8, i32, [4 x i32], i32, i8, i8, i8, i8 }
%struct.anon.2 = type { ptr, ptr, ptr, i64 }
%struct.srp_ctx_st = type { ptr, ptr, ptr, ptr, ptr, ptr, ptr, ptr, ptr, ptr, ptr, ptr, ptr, ptr, i32, i64 }
%struct.record_layer_st = type { ptr, ptr, ptr, ptr, ptr, ptr, ptr, ptr, i64, i32, i64, [4 x i8], i64, i64, i8, ptr, i32, ptr, ptr, ptr, i64, i64, i64, i64, [32 x %struct.tls_record_st] }
%struct.tls_record_st = type { ptr, i32, i8, ptr, ptr, i64, i64, i16, [8 x i8] }

; Function Attrs: nounwind uwtable
define internal i32 @yield_secret_cb(i32 noundef %0, i32 noundef %1, i32 noundef %2, ptr noundef %3, ptr noundef %4, i64 noundef %5, ptr noundef %6) #0 {
  %8 = alloca i32, align 4
  %9 = alloca i32, align 4
  %10 = alloca i32, align 4
  %11 = alloca i32, align 4
  %12 = alloca ptr, align 8
  %13 = alloca ptr, align 8
  %14 = alloca i64, align 8
  %15 = alloca ptr, align 8
  %16 = alloca ptr, align 8
  %17 = alloca ptr, align 8
  %18 = alloca i32, align 4
  store i32 %0, ptr %9, align 4, !tbaa !115
  store i32 %1, ptr %10, align 4, !tbaa !115
  store i32 %2, ptr %11, align 4, !tbaa !115
  store ptr %3, ptr %12, align 8, !tbaa !116
  store ptr %4, ptr %13, align 8, !tbaa !107
  store i64 %5, ptr %14, align 8, !tbaa !108
  store ptr %6, ptr %15, align 8, !tbaa !10
  call void @llvm.lifetime.start.p0(i64 8, ptr %16) #4
  %19 = load ptr, ptr %15, align 8, !tbaa !10
  store ptr %19, ptr %16, align 8, !tbaa !3
  call void @llvm.lifetime.start.p0(i64 8, ptr %17) #4
  %20 = load ptr, ptr %16, align 8, !tbaa !3
  %21 = icmp eq ptr %20, null
  br i1 %21, label %22, label %23

22:                                               ; preds = %7
  br label %44

23:                                               ; preds = %7
  %24 = load ptr, ptr %16, align 8, !tbaa !3
  %25 = getelementptr inbounds nuw %struct.ssl_st, ptr %24, i32 0, i32 0
  %26 = load i32, ptr %25, align 8, !tbaa !11
  %27 = icmp eq i32 %26, 0
  br i1 %27, label %28, label %30

28:                                               ; preds = %23
  %29 = load ptr, ptr %16, align 8, !tbaa !3
  br label %42

30:                                               ; preds = %23
  %31 = load ptr, ptr %16, align 8, !tbaa !3
  %32 = getelementptr inbounds nuw %struct.ssl_st, ptr %31, i32 0, i32 0
  %33 = load i32, ptr %32, align 8, !tbaa !11
  %34 = and i32 %33, 128
  %35 = icmp ne i32 %34, 0
  br i1 %35, label %36, label %39

36:                                               ; preds = %30
  %37 = load ptr, ptr %16, align 8, !tbaa !3
  %38 = call ptr @ossl_quic_obj_get0_handshake_layer(ptr noundef %37)
  br label %40

39:                                               ; preds = %30
  br label %40

40:                                               ; preds = %39, %36
  %41 = phi ptr [ %38, %36 ], [ null, %39 ]
  br label %42

42:                                               ; preds = %40, %28
  %43 = phi ptr [ %29, %28 ], [ %41, %40 ]
  br label %44

44:                                               ; preds = %42, %22
  %45 = phi ptr [ null, %22 ], [ %43, %42 ]
  store ptr %45, ptr %17, align 8, !tbaa !20
  %46 = load ptr, ptr %17, align 8, !tbaa !20
  %47 = icmp eq ptr %46, null
  br i1 %47, label %48, label %49

48:                                               ; preds = %44
  store i32 0, ptr %8, align 4
  store i32 1, ptr %18, align 4
  br label %63

49:                                               ; preds = %44
  %50 = load ptr, ptr %17, align 8, !tbaa !20
  %51 = getelementptr inbounds nuw %struct.ssl_connection_st, ptr %50, i32 0, i32 21
  %52 = getelementptr inbounds nuw %struct.ossl_quic_tls_callbacks_st, ptr %51, i32 0, i32 3
  %53 = load ptr, ptr %52, align 8, !tbaa !117
  %54 = load ptr, ptr %16, align 8, !tbaa !3
  %55 = load i32, ptr %9, align 4, !tbaa !115
  %56 = load i32, ptr %10, align 4, !tbaa !115
  %57 = load ptr, ptr %13, align 8, !tbaa !107
  %58 = load i64, ptr %14, align 8, !tbaa !108
  %59 = load ptr, ptr %17, align 8, !tbaa !20
  %60 = getelementptr inbounds nuw %struct.ssl_connection_st, ptr %59, i32 0, i32 22
  %61 = load ptr, ptr %60, align 8, !tbaa !22
  %62 = call i32 %53(ptr noundef %54, i32 noundef %55, i32 noundef %56, ptr noundef %57, i64 noundef %58, ptr noundef %61)
  store i32 %62, ptr %8, align 4
  store i32 1, ptr %18, align 4
  br label %63

63:                                               ; preds = %49, %48
  call void @llvm.lifetime.end.p0(i64 8, ptr %17) #4
  call void @llvm.lifetime.end.p0(i64 8, ptr %16) #4
  %64 = load i32, ptr %8, align 4
  ret i32 %64
}