; Function Attrs: nounwind uwtable
define internal i32 @yield_secret_cb(i32 noundef %0, i32 noundef %1, i32 %2, ptr readnone captures(none) %3, ptr noundef %4, i64 noundef %5, ptr noundef %6) #0 {
  %8 = icmp eq ptr %6, null
  br i1 %8, label %.thread, label %9

9:                                                ; preds = %7
  %10 = load i32, ptr %6, align 8, !tbaa !3
  %11 = icmp eq i32 %10, 0
  br i1 %11, label %.thread17, label %12

12:                                               ; preds = %9
  %13 = and i32 %10, 128
  %.not = icmp eq i32 %13, 0
  br i1 %.not, label %.thread, label %14

14:                                               ; preds = %12
  %15 = tail call ptr @ossl_quic_obj_get0_handshake_layer(ptr noundef nonnull %6) #5
  %16 = icmp eq ptr %15, null
  br i1 %16, label %.thread, label %.thread17

.thread17:                                        ; preds = %9, %14
  %17 = phi ptr [ %15, %14 ], [ %6, %9 ]
  %18 = getelementptr inbounds nuw i8, ptr %17, i64 312
  %19 = load ptr, ptr %18, align 8, !tbaa !102
  %20 = getelementptr inbounds nuw i8, ptr %17, i64 336
  %21 = load ptr, ptr %20, align 8, !tbaa !27
  %22 = tail call i32 %19(ptr noundef nonnull %6, i32 noundef %0, i32 noundef %1, ptr noundef %4, i64 noundef %5, ptr noundef %21) #5
  br label %.thread

.thread:                                          ; preds = %12, %7, %14, %.thread17
  %.0 = phi i32 [ %22, %.thread17 ], [ 0, %14 ], [ 0, %7 ], [ 0, %12 ]
  ret i32 %.0
}